target datalayout = "e-m:e-p270:32:32-p271:32:32-p272:64:64-i64:64-i128:128-f80:128-n8:16:32:64-S128"
target triple = "x86_64-pc-linux-gnu"

%struct._zval_struct = type { %union._zend_value, %union.anon, %union.anon.2 }
%union._zend_value = type { i64 }
%union.anon = type { i32 }
%union.anon.2 = type { i32 }
%struct._zend_refcounted_h = type { i32, %union.anon.3 }
%union.anon.3 = type { i32 }
%struct._zend_execute_data = type { ptr, ptr, ptr, ptr, %struct._zval_struct, ptr, ptr, ptr, ptr }
%struct._zend_string = type { %struct._zend_refcounted_h, i64, i64, [1 x i8] }

@.str.6 = private unnamed_addr constant [7 x i8] c"stream\00", align 1

; Function Attrs: nounwind uwtable
define hidden void @zif_stream_socket_get_name(ptr noundef %0, ptr noundef %1) #0 {
  %3 = alloca ptr, align 8
  %4 = alloca ptr, align 8
  %5 = alloca ptr, align 8
  %6 = alloca i1, align 1
  %7 = alloca ptr, align 8
  %8 = alloca ptr, align 8
  %9 = alloca ptr, align 8
  %10 = alloca i8, align 1
  %11 = alloca i32, align 4
  %12 = alloca i8, align 1
  %13 = alloca ptr, align 8
  %14 = alloca ptr, align 8
  %15 = alloca ptr, align 8
  %16 = alloca ptr, align 8
  %17 = alloca ptr, align 8
  %18 = alloca ptr, align 8
  %19 = alloca i8, align 1
  %20 = alloca i32, align 4
  %21 = alloca i32, align 4
  %22 = alloca i32, align 4
  %23 = alloca ptr, align 8
  %24 = alloca i8, align 1
  %25 = alloca i1, align 1
  %26 = alloca ptr, align 8
  %27 = alloca ptr, align 8
  %28 = alloca i8, align 1
  %29 = alloca ptr, align 8
  %30 = alloca ptr, align 8
  %31 = alloca ptr, align 8
  %32 = alloca ptr, align 8
  %33 = alloca i8, align 1
  %34 = alloca ptr, align 8
  %35 = alloca i32, align 4
  %36 = alloca i32, align 4
  %37 = alloca i32, align 4
  %38 = alloca i32, align 4
  %39 = alloca i32, align 4
  %40 = alloca ptr, align 8
  %41 = alloca ptr, align 8
  %42 = alloca i32, align 4
  %43 = alloca ptr, align 8
  %44 = alloca i8, align 1
  %45 = alloca i8, align 1
  %46 = alloca i32, align 4
  %47 = alloca ptr, align 8
  %48 = alloca ptr, align 8
  store ptr %0, ptr %29, align 8
  store ptr %1, ptr %30, align 8
  store ptr null, ptr %34, align 8
  br label %49

49:                                               ; preds = %2
  store i32 0, ptr %35, align 4
  store i32 2, ptr %36, align 4
  store i32 2, ptr %37, align 4
  %50 = load ptr, ptr %29, align 8
  %51 = getelementptr inbounds %struct._zend_execute_data, ptr %50, i32 0, i32 4
  %52 = getelementptr inbounds %struct._zval_struct, ptr %51, i32 0, i32 2
  %53 = load i32, ptr %52, align 4
  store i32 %53, ptr %38, align 4
  store i32 0, ptr %39, align 4
  store ptr null, ptr %41, align 8
  store i32 0, ptr %42, align 4
  store ptr null, ptr %43, align 8
  store i8 0, ptr %44, align 1
  store i8 0, ptr %45, align 1
  store i32 0, ptr %46, align 4
  br label %54

54:                                               ; preds = %49
  %55 = load i32, ptr %38, align 4
  %56 = load i32, ptr %36, align 4
  %57 = icmp ult i32 %55, %56
  %58 = xor i1 %57, true
  %59 = xor i1 %58, true
  %60 = zext i1 %59 to i32
  %61 = sext i32 %60 to i64
  %62 = icmp ne i64 %61, 0
  br i1 %62, label %72, label %63

63:                                               ; preds = %54
  %64 = load i32, ptr %38, align 4
  %65 = load i32, ptr %37, align 4
  %66 = icmp ugt i32 %64, %65
  %67 = xor i1 %66, true
  %68 = xor i1 %67, true
  %69 = zext i1 %68 to i32
  %70 = sext i32 %69 to i64
  %71 = icmp ne i64 %70, 0
  br i1 %71, label %72, label %75

72:                                               ; preds = %63, %54
  %73 = load i32, ptr %36, align 4
  %74 = load i32, ptr %37, align 4
  call void @zend_wrong_parameters_count_error(i32 noundef %73, i32 noundef %74)
  store i32 1, ptr %46, align 4
  br label %267

75:                                               ; preds = %63
  %76 = load ptr, ptr %29, align 8
  %77 = getelementptr inbounds %struct._zval_struct, ptr %76, i64 4
  store ptr %77, ptr %40, align 8
  %78 = load i32, ptr %39, align 4
  %79 = add i32 %78, 1
  store i32 %79, ptr %39, align 4
  %80 = load i32, ptr %39, align 4
  %81 = load i32, ptr %36, align 4
  %82 = icmp ule i32 %80, %81
  br i1 %82, label %88, label %83

83:                                               ; preds = %75
  %84 = load i8, ptr %45, align 1
  %85 = trunc i8 %84 to i1
  %86 = zext i1 %85 to i32
  %87 = icmp eq i32 %86, 1
  br label %88

88:                                               ; preds = %83, %75
  %89 = phi i1 [ true, %75 ], [ %87, %83 ]
  call void @llvm.assume(i1 %89)
  %90 = load i32, ptr %39, align 4
  %91 = load i32, ptr %36, align 4
  %92 = icmp ugt i32 %90, %91
  br i1 %92, label %98, label %93

93:                                               ; preds = %88
  %94 = load i8, ptr %45, align 1
  %95 = trunc i8 %94 to i1
  %96 = zext i1 %95 to i32
  %97 = icmp eq i32 %96, 0
  br label %98

98:                                               ; preds = %93, %88
  %99 = phi i1 [ true, %88 ], [ %97, %93 ]
  call void @llvm.assume(i1 %99)
  %100 = load i8, ptr %45, align 1
  %101 = trunc i8 %100 to i1
  br i1 %101, label %102, label %113

102:                                              ; preds = %98
  %103 = load i32, ptr %39, align 4
  %104 = load i32, ptr %38, align 4
  %105 = icmp ugt i32 %103, %104
  %106 = xor i1 %105, true
  %107 = xor i1 %106, true
  %108 = zext i1 %107 to i32
  %109 = sext i32 %108 to i64
  %110 = icmp ne i64 %109, 0
  br i1 %110, label %111, label %112

111:                                              ; preds = %102
  br label %267

112:                                              ; preds = %102
  br label %113

113:                                              ; preds = %112, %98
  %114 = load ptr, ptr %40, align 8
  %115 = getelementptr inbounds %struct._zval_struct, ptr %114, i32 1
  store ptr %115, ptr %40, align 8
  %116 = load ptr, ptr %40, align 8
  store ptr %116, ptr %41, align 8
  %117 = load ptr, ptr %41, align 8
  store ptr %117, ptr %26, align 8
  store ptr %32, ptr %27, align 8
  store i8 0, ptr %28, align 1
  %118 = load ptr, ptr %26, align 8
  store ptr %118, ptr %14, align 8
  %119 = load ptr, ptr %14, align 8
  %120 = getelementptr inbounds %struct._zval_struct, ptr %119, i32 0, i32 1
  %121 = load i8, ptr %120, align 8
  %122 = zext i8 %121 to i32
  %123 = icmp eq i32 %122, 9
  br i1 %123, label %124, label %127

124:                                              ; preds = %113
  %125 = load ptr, ptr %26, align 8
  %126 = load ptr, ptr %27, align 8
  store ptr %125, ptr %126, align 8
  br label %140

127:                                              ; preds = %113
  %128 = load i8, ptr %28, align 1
  %129 = trunc i8 %128 to i1
  br i1 %129, label %130, label %139

130:                                              ; preds = %127
  %131 = load ptr, ptr %26, align 8
  store ptr %131, ptr %15, align 8
  %132 = load ptr, ptr %15, align 8
  %133 = getelementptr inbounds %struct._zval_struct, ptr %132, i32 0, i32 1
  %134 = load i8, ptr %133, align 8
  %135 = zext i8 %134 to i32
  %136 = icmp eq i32 %135, 1
  br i1 %136, label %137, label %139

137:                                              ; preds = %130
  %138 = load ptr, ptr %27, align 8
  store ptr null, ptr %138, align 8
  br label %140

139:                                              ; preds = %130, %127
  store i1 false, ptr %25, align 1
  br label %141

140:                                              ; preds = %137, %124
  store i1 true, ptr %25, align 1
  br label %141

141:                                              ; preds = %140, %139
  %142 = load i1, ptr %25, align 1
  %143 = xor i1 %142, true
  %144 = xor i1 %143, true
  %145 = xor i1 %144, true
  %146 = zext i1 %145 to i32
  %147 = sext i32 %146 to i64
  %148 = icmp ne i64 %147, 0
  br i1 %148, label %149, label %150

149:                                              ; preds = %141
  store i32 14, ptr %42, align 4
  store i32 9, ptr %46, align 4
  br label %267

150:                                              ; preds = %141
  %151 = load i32, ptr %39, align 4
  %152 = add i32 %151, 1
  store i32 %152, ptr %39, align 4
  %153 = load i32, ptr %39, align 4
  %154 = load i32, ptr %36, align 4
  %155 = icmp ule i32 %153, %154
  br i1 %155, label %161, label %156

156:                                              ; preds = %150
  %157 = load i8, ptr %45, align 1
  %158 = trunc i8 %157 to i1
  %159 = zext i1 %158 to i32
  %160 = icmp eq i32 %159, 1
  br label %161

161:                                              ; preds = %156, %150
  %162 = phi i1 [ true, %150 ], [ %160, %156 ]
  call void @llvm.assume(i1 %162)
  %163 = load i32, ptr %39, align 4
  %164 = load i32, ptr %36, align 4
  %165 = icmp ugt i32 %163, %164
  br i1 %165, label %171, label %166

166:                                              ; preds = %161
  %167 = load i8, ptr %45, align 1
  %168 = trunc i8 %167 to i1
  %169 = zext i1 %168 to i32
  %170 = icmp eq i32 %169, 0
  br label %171

171:                                              ; preds = %166, %161
  %172 = phi i1 [ true, %161 ], [ %170, %166 ]
  call void @llvm.assume(i1 %172)
  %173 = load i8, ptr %45, align 1
  %174 = trunc i8 %173 to i1
  br i1 %174, label %175, label %186

175:                                              ; preds = %171
  %176 = load i32, ptr %39, align 4
  %177 = load i32, ptr %38, align 4
  %178 = icmp ugt i32 %176, %177
  %179 = xor i1 %178, true
  %180 = xor i1 %179, true
  %181 = zext i1 %180 to i32
  %182 = sext i32 %181 to i64
  %183 = icmp ne i64 %182, 0
  br i1 %183, label %184, label %185

184:                                              ; preds = %175
  br label %267

185:                                              ; preds = %175
  br label %186

186:                                              ; preds = %185, %171
  %187 = load ptr, ptr %40, align 8
  %188 = getelementptr inbounds %struct._zval_struct, ptr %187, i32 1
  store ptr %188, ptr %40, align 8
  %189 = load ptr, ptr %40, align 8
  store ptr %189, ptr %41, align 8
  %190 = load ptr, ptr %41, align 8
  %191 = load i32, ptr %39, align 4
  store ptr %190, ptr %16, align 8
  store ptr %33, ptr %17, align 8
  store ptr %44, ptr %18, align 8
  store i8 0, ptr %19, align 1
  store i32 %191, ptr %20, align 4
  %192 = load ptr, ptr %16, align 8
  %193 = load ptr, ptr %17, align 8
  %194 = load ptr, ptr %18, align 8
  %195 = load i8, ptr %19, align 1
  %196 = trunc i8 %195 to i1
  %197 = load i32, ptr %20, align 4
  store ptr %192, ptr %7, align 8
  store ptr %193, ptr %8, align 8
  store ptr %194, ptr %9, align 8
  %198 = zext i1 %196 to i8
  store i8 %198, ptr %10, align 1
  store i32 %197, ptr %11, align 4
  store i8 0, ptr %12, align 1
  %199 = load i8, ptr %10, align 1
  %200 = trunc i8 %199 to i1
  br i1 %200, label %201, label %203

201:                                              ; preds = %186
  %202 = load ptr, ptr %9, align 8
  store i8 0, ptr %202, align 1
  br label %203

203:                                              ; preds = %201, %186
  %204 = load ptr, ptr %7, align 8
  store ptr %204, ptr %3, align 8
  %205 = load ptr, ptr %3, align 8
  %206 = getelementptr inbounds %struct._zval_struct, ptr %205, i32 0, i32 1
  %207 = load i8, ptr %206, align 8
  %208 = zext i8 %207 to i32
  %209 = icmp eq i32 %208, 3
  br i1 %209, label %210, label %212

210:                                              ; preds = %203
  %211 = load ptr, ptr %8, align 8
  store i8 1, ptr %211, align 1
  br label %248

212:                                              ; preds = %203
  %213 = load ptr, ptr %7, align 8
  store ptr %213, ptr %4, align 8
  %214 = load ptr, ptr %4, align 8
  %215 = getelementptr inbounds %struct._zval_struct, ptr %214, i32 0, i32 1
  %216 = load i8, ptr %215, align 8
  %217 = zext i8 %216 to i32
  %218 = icmp eq i32 %217, 2
  br i1 %218, label %219, label %221

219:                                              ; preds = %212
  %220 = load ptr, ptr %8, align 8
  store i8 0, ptr %220, align 1
  br label %247

221:                                              ; preds = %212
  %222 = load i8, ptr %10, align 1
  %223 = trunc i8 %222 to i1
  br i1 %223, label %224, label %234

224:                                              ; preds = %221
  %225 = load ptr, ptr %7, align 8
  store ptr %225, ptr %5, align 8
  %226 = load ptr, ptr %5, align 8
  %227 = getelementptr inbounds %struct._zval_struct, ptr %226, i32 0, i32 1
  %228 = load i8, ptr %227, align 8
  %229 = zext i8 %228 to i32
  %230 = icmp eq i32 %229, 1
  br i1 %230, label %231, label %234

231:                                              ; preds = %224
  %232 = load ptr, ptr %9, align 8
  store i8 1, ptr %232, align 1
  %233 = load ptr, ptr %8, align 8
  store i8 0, ptr %233, align 1
  br label %247

234:                                              ; preds = %224, %221
  %235 = load i8, ptr %12, align 1
  %236 = trunc i8 %235 to i1
  br i1 %236, label %237, label %242

237:                                              ; preds = %234
  %238 = load ptr, ptr %7, align 8
  %239 = load ptr, ptr %8, align 8
  %240 = load i32, ptr %11, align 4
  %241 = call zeroext i1 @zend_flf_parse_arg_bool_slow(ptr noundef %238, ptr noundef %239, i32 noundef %240) #9
  store i1 %241, ptr %6, align 1
  br label %249

242:                                              ; preds = %234
  %243 = load ptr, ptr %7, align 8
  %244 = load ptr, ptr %8, align 8
  %245 = load i32, ptr %11, align 4
  %246 = call zeroext i1 @zend_parse_arg_bool_slow(ptr noundef %243, ptr noundef %244, i32 noundef %245) #9
  store i1 %246, ptr %6, align 1
  br label %249

247:                                              ; preds = %231, %219
  br label %248

248:                                              ; preds = %247, %210
  store i1 true, ptr %6, align 1
  br label %249

249:                                              ; preds = %248, %242, %237
  %250 = load i1, ptr %6, align 1
  %251 = xor i1 %250, true
  %252 = xor i1 %251, true
  %253 = xor i1 %252, true
  %254 = zext i1 %253 to i32
  %255 = sext i32 %254 to i64
  %256 = icmp ne i64 %255, 0
  br i1 %256, label %257, label %258

257:                                              ; preds = %249
  store i32 2, ptr %42, align 4
  store i32 9, ptr %46, align 4
  br label %267

258:                                              ; preds = %249
  %259 = load i32, ptr %39, align 4
  %260 = load i32, ptr %37, align 4
  %261 = icmp eq i32 %259, %260
  br i1 %261, label %265, label %262

262:                                              ; preds = %258
  %263 = load i32, ptr %37, align 4
  %264 = icmp eq i32 %263, -1
  br label %265

265:                                              ; preds = %262, %258
  %266 = phi i1 [ true, %258 ], [ %264, %262 ]
  call void @llvm.assume(i1 %266)
  br label %267

267:                                              ; preds = %265, %257, %184, %149, %111, %72
  %268 = load i32, ptr %46, align 4
  %269 = icmp ne i32 %268, 0
  %270 = xor i1 %269, true
  %271 = xor i1 %270, true
  %272 = zext i1 %271 to i32
  %273 = sext i32 %272 to i64
  %274 = icmp ne i64 %273, 0
  br i1 %274, label %275, label %281

275:                                              ; preds = %267
  %276 = load i32, ptr %46, align 4
  %277 = load i32, ptr %39, align 4
  %278 = load ptr, ptr %43, align 8
  %279 = load i32, ptr %42, align 4
  %280 = load ptr, ptr %41, align 8
  call void @zend_wrong_parameter_error(i32 noundef %276, i32 noundef %277, ptr noundef %278, i32 noundef %279, ptr noundef %280)
  br label %372

281:                                              ; preds = %267
  br label %282

282:                                              ; preds = %281
  br label %283

283:                                              ; preds = %282
  %284 = load ptr, ptr %32, align 8
  %285 = call i32 @php_file_le_stream()
  %286 = call i32 @php_file_le_pstream()
  %287 = call ptr @zend_fetch_resource2_ex(ptr noundef %284, ptr noundef @.str.6, i32 noundef %285, i32 noundef %286)
  store ptr %287, ptr %31, align 8
  %288 = icmp eq ptr %287, null
  br i1 %288, label %289, label %290

289:                                              ; preds = %283
  br label %372

290:                                              ; preds = %283
  br label %291

291:                                              ; preds = %290
  %292 = load ptr, ptr %31, align 8
  %293 = load i8, ptr %33, align 1
  %294 = trunc i8 %293 to i1
  %295 = zext i1 %294 to i32
  %296 = call i32 @php_stream_xport_get_name(ptr noundef %292, i32 noundef %295, ptr noundef %34, ptr noundef null, ptr noundef null)
  %297 = icmp ne i32 0, %296
  br i1 %297, label %301, label %298

298:                                              ; preds = %291
  %299 = load ptr, ptr %34, align 8
  %300 = icmp ne ptr %299, null
  br i1 %300, label %308, label %301

301:                                              ; preds = %298, %291
  br label %302

302:                                              ; preds = %301
  br label %303

303:                                              ; preds = %302
  %304 = load ptr, ptr %30, align 8
  %305 = getelementptr inbounds %struct._zval_struct, ptr %304, i32 0, i32 1
  store i32 2, ptr %305, align 8
  br label %306

306:                                              ; preds = %303
  br label %372

307:                                              ; No predecessors!
  br label %308

308:                                              ; preds = %307, %298
  %309 = load ptr, ptr %34, align 8
  %310 = getelementptr inbounds %struct._zend_string, ptr %309, i32 0, i32 2
  %311 = load i64, ptr %310, align 8
  %312 = icmp eq i64 %311, 0
  br i1 %312, label %320, label %313

313:                                              ; preds = %308
  %314 = load ptr, ptr %34, align 8
  %315 = getelementptr inbounds %struct._zend_string, ptr %314, i32 0, i32 3
  %316 = getelementptr inbounds [1 x i8], ptr %315, i64 0, i64 0
  %317 = load i8, ptr %316, align 8
  %318 = sext i8 %317 to i32
  %319 = icmp eq i32 %318, 0
  br i1 %319, label %320, label %354

320:                                              ; preds = %313, %308
  %321 = load ptr, ptr %34, align 8
  store ptr %321, ptr %23, align 8
  store i8 0, ptr %24, align 1
  %322 = load ptr, ptr %23, align 8
  %323 = getelementptr inbounds %struct._zend_refcounted_h, ptr %322, i32 0, i32 1
  %324 = load i32, ptr %323, align 4
  store i32 %324, ptr %22, align 4
  %325 = load i32, ptr %22, align 4
  %326 = and i32 %325, 1008
  %327 = and i32 %326, 64
  %328 = icmp ne i32 %327, 0
  br i1 %328, label %347, label %329

329:                                              ; preds = %320
  %330 = load ptr, ptr %23, align 8
  store ptr %330, ptr %13, align 8
  %331 = load ptr, ptr %13, align 8
  %332 = load i32, ptr %331, align 4
  %333 = icmp ugt i32 %332, 0
  call void @llvm.assume(i1 %333)
  %334 = load ptr, ptr %13, align 8
  %335 = load i32, ptr %334, align 4
  %336 = add i32 %335, -1
  store i32 %336, ptr %334, align 4
  %337 = icmp eq i32 %336, 0
  br i1 %337, label %338, label %346

338:                                              ; preds = %329
  %339 = load i8, ptr %24, align 1
  %340 = trunc i8 %339 to i1
  br i1 %340, label %341, label %343

341:                                              ; preds = %338
  %342 = load ptr, ptr %23, align 8
  call void @free(ptr noundef %342) #9
  br label %345

343:                                              ; preds = %338
  %344 = load ptr, ptr %23, align 8
  call void @_efree(ptr noundef %344) #9
  br label %345

345:                                              ; preds = %343, %341
  br label %346

346:                                              ; preds = %345, %329
  br label %347

347:                                              ; preds = %346, %320
  br label %348

348:                                              ; preds = %347
  br label %349

349:                                              ; preds = %348
  %350 = load ptr, ptr %30, align 8
  %351 = getelementptr inbounds %struct._zval_struct, ptr %350, i32 0, i32 1
  store i32 2, ptr %351, align 8
  br label %352

352:                                              ; preds = %349
  br label %372

353:                                              ; No predecessors!
  br label %354

354:                                              ; preds = %353, %313
  br label %355

355:                                              ; preds = %354
  %356 = load ptr, ptr %30, align 8
  store ptr %356, ptr %47, align 8
  %357 = load ptr, ptr %34, align 8
  store ptr %357, ptr %48, align 8
  %358 = load ptr, ptr %48, align 8
  %359 = load ptr, ptr %47, align 8
  %360 = getelementptr inbounds %struct._zval_struct, ptr %359, i32 0, i32 0
  store ptr %358, ptr %360, align 8
  %361 = load ptr, ptr %48, align 8
  %362 = getelementptr inbounds %struct._zend_string, ptr %361, i32 0, i32 0
  %363 = getelementptr inbounds %struct._zend_refcounted_h, ptr %362, i32 0, i32 1
  %364 = load i32, ptr %363, align 4
  store i32 %364, ptr %21, align 4
  %365 = load i32, ptr %21, align 4
  %366 = and i32 %365, 1008
  %367 = and i32 %366, 64
  %368 = icmp ne i32 %367, 0
  %369 = select i1 %368, i32 6, i32 262
  %370 = load ptr, ptr %47, align 8
  %371 = getelementptr inbounds %struct._zval_struct, ptr %370, i32 0, i32 1
  store i32 %369, ptr %371, align 8
  br label %372

372:                                              ; preds = %355, %352, %306, %289, %275
  ret void
}