; Function Attrs: nounwind uwtable
define hidden void @zif_stream_socket_get_name(ptr noundef %0, ptr nocapture noundef writeonly %1) local_unnamed_addr #0 {
  %3 = alloca i8, align 1
  %4 = alloca ptr, align 8
  store ptr null, ptr %4, align 8
  %5 = getelementptr inbounds i8, ptr %0, i64 44
  %6 = load i32, ptr %5, align 4
  %.not = icmp eq i32 %6, 2
  br i1 %.not, label %8, label %7

7:                                                ; preds = %2
  tail call void @zend_wrong_parameters_count_error(i32 noundef 2, i32 noundef 2) #10
  br label %.thread129

8:                                                ; preds = %2
  %9 = getelementptr inbounds i8, ptr %0, i64 80
  %10 = getelementptr inbounds i8, ptr %0, i64 88
  %11 = load i8, ptr %10, align 8
  %.not107 = icmp eq i8 %11, 9
  br i1 %.not107, label %12, label %.thread129

12:                                               ; preds = %8
  %13 = getelementptr inbounds i8, ptr %0, i64 104
  %14 = load i8, ptr %13, align 8
  switch i8 %14, label %16 [
    i8 3, label %.thread125
    i8 2, label %15
  ]

15:                                               ; preds = %12
  br label %.thread125

.thread125:                                       ; preds = %15, %12
  %storemerge = phi i8 [ 0, %15 ], [ 1, %12 ]
  store i8 %storemerge, ptr %3, align 1
  br label %.thread142

16:                                               ; preds = %12
  %17 = getelementptr inbounds i8, ptr %0, i64 96
  %18 = call zeroext i1 @zend_parse_arg_bool_slow(ptr noundef nonnull %17, ptr noundef nonnull %3, i32 noundef 2) #10
  %.fr = freeze i1 %18
  br i1 %.fr, label %.thread142, label %.thread129

.thread129:                                       ; preds = %16, %8, %7
  %.097139 = phi i32 [ 9, %8 ], [ 1, %7 ], [ 9, %16 ]
  %.098138 = phi i32 [ 1, %8 ], [ 0, %7 ], [ 2, %16 ]
  %.099137 = phi i32 [ 14, %8 ], [ 0, %7 ], [ 2, %16 ]
  %.0100136 = phi ptr [ %9, %8 ], [ null, %7 ], [ %17, %16 ]
  call void @zend_wrong_parameter_error(i32 noundef %.097139, i32 noundef %.098138, ptr noundef null, i32 noundef %.099137, ptr noundef %.0100136) #10
  br label %59

.thread142:                                       ; preds = %16, %.thread125
  %19 = call i32 @php_file_le_stream() #10
  %20 = call i32 @php_file_le_pstream() #10
  %21 = call ptr @zend_fetch_resource2_ex(ptr noundef nonnull %9, ptr noundef nonnull @.str.6, i32 noundef %19, i32 noundef %20) #10
  %22 = icmp eq ptr %21, null
  br i1 %22, label %59, label %23

23:                                               ; preds = %.thread142
  %24 = load i8, ptr %3, align 1
  %25 = and i8 %24, 1
  %26 = zext nneg i8 %25 to i32
  %27 = call i32 @php_stream_xport_get_name(ptr noundef nonnull %21, i32 noundef %26, ptr noundef nonnull %4, ptr noundef null, ptr noundef null) #10
  %28 = icmp eq i32 %27, 0
  %29 = load ptr, ptr %4, align 8
  %30 = icmp ne ptr %29, null
  %or.cond = select i1 %28, i1 %30, i1 false
  br i1 %or.cond, label %33, label %31

31:                                               ; preds = %23
  %32 = getelementptr inbounds i8, ptr %1, i64 8
  store i32 2, ptr %32, align 8
  br label %59

33:                                               ; preds = %23
  %34 = getelementptr inbounds i8, ptr %29, i64 16
  %35 = load i64, ptr %34, align 8
  %36 = icmp eq i64 %35, 0
  br i1 %36, label %41, label %37

37:                                               ; preds = %33
  %38 = getelementptr inbounds i8, ptr %29, i64 24
  %39 = load i8, ptr %38, align 8
  %40 = icmp eq i8 %39, 0
  br i1 %40, label %41, label %53

41:                                               ; preds = %37, %33
  %42 = getelementptr inbounds i8, ptr %29, i64 4
  %43 = load i32, ptr %42, align 4
  %44 = and i32 %43, 64
  %.not110 = icmp eq i32 %44, 0
  br i1 %.not110, label %45, label %51

45:                                               ; preds = %41
  %46 = load i32, ptr %29, align 4
  %47 = icmp ne i32 %46, 0
  call void @llvm.assume(i1 %47)
  %48 = add i32 %46, -1
  store i32 %48, ptr %29, align 4
  %49 = icmp eq i32 %48, 0
  br i1 %49, label %50, label %51

50:                                               ; preds = %45
  call void @_efree(ptr noundef nonnull %29) #10
  br label %51

51:                                               ; preds = %45, %50, %41
  %52 = getelementptr inbounds i8, ptr %1, i64 8
  store i32 2, ptr %52, align 8
  br label %59

53:                                               ; preds = %37
  store ptr %29, ptr %1, align 8
  %54 = getelementptr inbounds i8, ptr %29, i64 4
  %55 = load i32, ptr %54, align 4
  %56 = and i32 %55, 64
  %.not109 = icmp eq i32 %56, 0
  %57 = select i1 %.not109, i32 262, i32 6
  %58 = getelementptr inbounds i8, ptr %1, i64 8
  store i32 %57, ptr %58, align 8
  br label %59

59:                                               ; preds = %.thread142, %53, %51, %31, %.thread129
  ret void
}